target datalayout = "e-m:e-p270:32:32-p271:32:32-p272:64:64-i64:64-i128:128-f80:128-n8:16:32:64-S128"
target triple = "x86_64-pc-linux-gnu"

%"class.euf::enode" = type { ptr, i8, i8, i8, i8, i8, i8, i8, i8, i8, i32, i32, i32, i32, i32, i32, %class.ptr_vector, ptr, ptr, ptr, ptr, %class.id_var_list, %"class.euf::justification", %"class.euf::justification", i32, i8, %class.approx_set, %class.approx_set, [0 x ptr] }
%class.ptr_vector = type { %class.vector }
%class.vector = type { ptr }
%class.id_var_list = type { i32, ptr }
%"class.euf::justification" = type { i32, %union.anon, %union.anon.0 }
%union.anon = type { ptr }
%union.anon.0 = type { ptr }
%class.approx_set = type { %class.approx_set_tpl }
%class.approx_set_tpl = type { i64 }

; Function Attrs: mustprogress nounwind uwtable
define linkonce_odr hidden noundef ptr @_ZNK11id_var_listILin1ELin1EE8get_nextEv(ptr noundef nonnull align 8 dereferenceable(16) %0) #6 comdat align 2 {
  %2 = alloca ptr, align 8
  store ptr %0, ptr %2, align 8, !tbaa !82
  %3 = load ptr, ptr %2, align 8
  %4 = getelementptr inbounds nuw %class.id_var_list, ptr %3, i32 0, i32 1
  %5 = load ptr, ptr %4, align 8, !tbaa !84
  ret ptr %5
}

; Function Attrs: mustprogress nounwind uwtable
define linkonce_odr hidden noundef i32 @_ZNK11id_var_listILin1ELin1EE7get_varEv(ptr noundef nonnull align 8 dereferenceable(16) %0) #6 comdat align 2 {
  %2 = alloca ptr, align 8
  store ptr %0, ptr %2, align 8, !tbaa !82
  %3 = load ptr, ptr %2, align 8
  %4 = load i32, ptr %3, align 8
  %5 = ashr i32 %4, 8
  ret i32 %5
}

; Function Attrs: mustprogress nounwind uwtable
define linkonce_odr hidden noundef i32 @_ZNK11id_var_listILin1ELin1EE6get_idEv(ptr noundef nonnull align 8 dereferenceable(16) %0) #6 comdat align 2 {
  %2 = alloca ptr, align 8
  store ptr %0, ptr %2, align 8, !tbaa !82
  %3 = load ptr, ptr %2, align 8
  %4 = load i32, ptr %3, align 8
  %5 = shl i32 %4, 24
  %6 = ashr i32 %5, 24
  ret i32 %6
}

; Function Attrs: mustprogress uwtable
define linkonce_odr hidden noundef zeroext i1 @_ZNK11id_var_listILin1ELin1EE5emptyEv(ptr noundef nonnull align 8 dereferenceable(16) %0) #4 comdat align 2 {
  %2 = alloca ptr, align 8
  store ptr %0, ptr %2, align 8, !tbaa !82
  %3 = load ptr, ptr %2, align 8
  %4 = call noundef i32 @_ZNK11id_var_listILin1ELin1EE7get_varEv(ptr noundef nonnull align 8 dereferenceable(16) %3)
  %5 = icmp eq i32 %4, -1
  ret i1 %5
}

; Function Attrs: mustprogress uwtable
define linkonce_odr hidden noundef i32 @_ZNK11id_var_listILin1ELin1EE4findEi(ptr noundef nonnull align 8 dereferenceable(16) %0, i32 noundef %1) #4 comdat align 2 {
  %3 = alloca i32, align 4
  %4 = alloca ptr, align 8
  %5 = alloca i32, align 4
  %6 = alloca ptr, align 8
  %7 = alloca i32, align 4
  store ptr %0, ptr %4, align 8, !tbaa !82
  store i32 %1, ptr %5, align 4, !tbaa !10
  %8 = load ptr, ptr %4, align 8
  %9 = call noundef zeroext i1 @_ZNK11id_var_listILin1ELin1EE5emptyEv(ptr noundef nonnull align 8 dereferenceable(16) %8)
  br i1 %9, label %10, label %11

10:                                               ; preds = %2
  store i32 -1, ptr %3, align 4
  br label %28

11:                                               ; preds = %2
  call void @llvm.lifetime.start.p0(i64 8, ptr %6) #3
  store ptr %8, ptr %6, align 8, !tbaa !82
  br label %12

12:                                               ; preds = %23, %11
  %13 = load i32, ptr %5, align 4, !tbaa !10
  %14 = load ptr, ptr %6, align 8, !tbaa !82
  %15 = call noundef i32 @_ZNK11id_var_listILin1ELin1EE6get_idEv(ptr noundef nonnull align 8 dereferenceable(16) %14)
  %16 = icmp eq i32 %13, %15
  br i1 %16, label %17, label %20

17:                                               ; preds = %12
  %18 = load ptr, ptr %6, align 8, !tbaa !82
  %19 = call noundef i32 @_ZNK11id_var_listILin1ELin1EE7get_varEv(ptr noundef nonnull align 8 dereferenceable(16) %18)
  store i32 %19, ptr %3, align 4
  store i32 1, ptr %7, align 4
  br label %27

20:                                               ; preds = %12
  %21 = load ptr, ptr %6, align 8, !tbaa !82
  %22 = call noundef ptr @_ZNK11id_var_listILin1ELin1EE8get_nextEv(ptr noundef nonnull align 8 dereferenceable(16) %21)
  store ptr %22, ptr %6, align 8, !tbaa !82
  br label %23

23:                                               ; preds = %20
  %24 = load ptr, ptr %6, align 8, !tbaa !82
  %25 = icmp ne ptr %24, null
  br i1 %25, label %12, label %26, !llvm.loop !83

26:                                               ; preds = %23
  store i32 -1, ptr %3, align 4
  store i32 1, ptr %7, align 4
  br label %27

27:                                               ; preds = %26, %17
  call void @llvm.lifetime.end.p0(i64 8, ptr %6) #3
  br label %28

28:                                               ; preds = %27, %10
  %29 = load i32, ptr %3, align 4
  ret i32 %29
}

; Function Attrs: mustprogress uwtable
define linkonce_odr hidden noundef i32 @_ZNK3euf5enode10get_th_varEi(ptr noundef nonnull align 8 dereferenceable(176) %0, i32 noundef %1) #4 comdat align 2 {
  %3 = alloca ptr, align 8
  %4 = alloca i32, align 4
  store ptr %0, ptr %3, align 8, !tbaa !3
  store i32 %1, ptr %4, align 4, !tbaa !10
  %5 = load ptr, ptr %3, align 8
  %6 = getelementptr inbounds nuw %"class.euf::enode", ptr %5, i32 0, i32 21
  %7 = load i32, ptr %4, align 4, !tbaa !10
  %8 = call noundef i32 @_ZNK11id_var_listILin1ELin1EE4findEi(ptr noundef nonnull align 8 dereferenceable(16) %6, i32 noundef %7)
  ret i32 %8
}

; Function Attrs: mustprogress uwtable
define hidden noundef i32 @_ZNK3euf5enode18get_closest_th_varEi(ptr noundef nonnull align 8 dereferenceable(176) %0, i32 noundef %1) #4 align 2 {
  %3 = alloca i32, align 4
  %4 = alloca ptr, align 8
  %5 = alloca i32, align 4
  %6 = alloca ptr, align 8
  %7 = alloca i32, align 4
  %8 = alloca i32, align 4
  store ptr %0, ptr %4, align 8, !tbaa !3
  store i32 %1, ptr %5, align 4, !tbaa !10
  %9 = load ptr, ptr %4, align 8
  call void @llvm.lifetime.start.p0(i64 8, ptr %6) #3
  store ptr %9, ptr %6, align 8, !tbaa !3
  br label %10

10:                                               ; preds = %27, %2
  %11 = load ptr, ptr %6, align 8, !tbaa !3
  %12 = icmp ne ptr %11, null
  br i1 %12, label %13, label %28

13:                                               ; preds = %10
  call void @llvm.lifetime.start.p0(i64 4, ptr %7) #3
  %14 = load ptr, ptr %6, align 8, !tbaa !3
  %15 = load i32, ptr %5, align 4, !tbaa !10
  %16 = call noundef i32 @_ZNK3euf5enode10get_th_varEi(ptr noundef nonnull align 8 dereferenceable(176) %14, i32 noundef %15)
  store i32 %16, ptr %7, align 4, !tbaa !10
  %17 = load i32, ptr %7, align 4, !tbaa !10
  %18 = icmp ne i32 %17, -1
  br i1 %18, label %19, label %21

19:                                               ; preds = %13
  %20 = load i32, ptr %7, align 4, !tbaa !10
  store i32 %20, ptr %3, align 4
  store i32 1, ptr %8, align 4
  br label %25

21:                                               ; preds = %13
  %22 = load ptr, ptr %6, align 8, !tbaa !3
  %23 = getelementptr inbounds nuw %"class.euf::enode", ptr %22, i32 0, i32 19
  %24 = load ptr, ptr %23, align 8, !tbaa !34
  store ptr %24, ptr %6, align 8, !tbaa !3
  store i32 0, ptr %8, align 4
  br label %25

25:                                               ; preds = %21, %19
  call void @llvm.lifetime.end.p0(i64 4, ptr %7) #3
  %26 = load i32, ptr %8, align 4
  switch i32 %26, label %29 [
    i32 0, label %27
  ]

27:                                               ; preds = %25
  br label %10, !llvm.loop !58

28:                                               ; preds = %10
  store i32 -1, ptr %3, align 4
  store i32 1, ptr %8, align 4
  br label %29

29:                                               ; preds = %28, %25
  call void @llvm.lifetime.end.p0(i64 8, ptr %6) #3
  %30 = load i32, ptr %3, align 4
  ret i32 %30
}