; Function Attrs: mustprogress nofree norecurse nosync nounwind willreturn memory(read, inaccessiblemem: none) uwtable
define hidden noundef range(i32 -8388608, 8388608) i32 @_ZNK3euf5enode18get_closest_th_varEi(ptr noundef nonnull readonly align 8 captures(none) dereferenceable(176) %0, i32 noundef %1) local_unnamed_addr #5 align 2 {
  br label %3

3:                                                ; preds = %2, %_ZNK3euf5enode10get_th_varEi.exit.thread
  %.0921 = phi ptr [ %0, %2 ], [ %16, %_ZNK3euf5enode10get_th_varEi.exit.thread ]
  %4 = getelementptr inbounds nuw i8, ptr %.0921, i64 88
  %5 = load i32, ptr %4, align 8
  %6 = icmp ugt i32 %5, -257
  br i1 %6, label %_ZNK3euf5enode10get_th_varEi.exit.thread, label %.preheader.i.i

.preheader.i.i:                                   ; preds = %3, %11
  %.0.i.i = phi ptr [ %13, %11 ], [ %4, %3 ]
  %7 = load i32, ptr %.0.i.i, align 8
  %8 = shl i32 %7, 24
  %9 = ashr exact i32 %8, 24
  %10 = icmp eq i32 %1, %9
  br i1 %10, label %_ZNK3euf5enode10get_th_varEi.exit, label %11

11:                                               ; preds = %.preheader.i.i
  %12 = getelementptr inbounds nuw i8, ptr %.0.i.i, i64 8
  %13 = load ptr, ptr %12, align 8, !tbaa !43
  %.not.i.i = icmp eq ptr %13, null
  br i1 %.not.i.i, label %_ZNK3euf5enode10get_th_varEi.exit.thread, label %.preheader.i.i, !llvm.loop !44

_ZNK3euf5enode10get_th_varEi.exit:                ; preds = %.preheader.i.i
  %14 = ashr i32 %7, 8
  %.not12 = icmp eq i32 %14, -1
  br i1 %.not12, label %_ZNK3euf5enode10get_th_varEi.exit.thread, label %.thread

_ZNK3euf5enode10get_th_varEi.exit.thread:         ; preds = %11, %3, %_ZNK3euf5enode10get_th_varEi.exit
  %15 = getelementptr inbounds nuw i8, ptr %.0921, i64 72
  %16 = load ptr, ptr %15, align 8, !tbaa !25
  %.not = icmp eq ptr %16, null
  br i1 %.not, label %.thread, label %3

.thread:                                          ; preds = %_ZNK3euf5enode10get_th_varEi.exit, %_ZNK3euf5enode10get_th_varEi.exit.thread
  %.2 = phi i32 [ -1, %_ZNK3euf5enode10get_th_varEi.exit.thread ], [ %14, %_ZNK3euf5enode10get_th_varEi.exit ]
  ret i32 %.2
}